# SymbolsHelper-Confirmed: 5.5.0 amd64
libQt5EglDeviceIntegration.so.5 libqt5egldeviceintegration5 #MINVER#
| libqt5egldeviceintegration5 #MINVER#, qtbase-abi-5-5-0
 _Z25qt_egl_device_integrationv@Base 5.5.0
 _ZN12QEglFSScreen17setPrimarySurfaceEPv@Base 5.5.0
 _ZN12QEglFSScreenC1EPv@Base 5.5.0
 _ZN12QEglFSScreenC2EPv@Base 5.5.0
 _ZN12QEglFSScreenD0Ev@Base 5.5.0
 _ZN12QEglFSScreenD1Ev@Base 5.5.0
 _ZN12QEglFSScreenD2Ev@Base 5.5.0
 _ZN12QEglFSWindow10setVisibleEb@Base 5.5.0
 _ZN12QEglFSWindow11setGeometryERK5QRect@Base 5.5.0
 _ZN12QEglFSWindow12resetSurfaceEv@Base 5.5.0
 _ZN12QEglFSWindow17invalidateSurfaceEv@Base 5.5.0
 _ZN12QEglFSWindow21requestActivateWindowEv@Base 5.5.0
 _ZN12QEglFSWindow5lowerEv@Base 5.5.0
 _ZN12QEglFSWindow5raiseEv@Base 5.5.0
 _ZN12QEglFSWindow6createEv@Base 5.5.0
 _ZN12QEglFSWindow7destroyEv@Base 5.5.0
 _ZN12QEglFSWindowC1EP7QWindow@Base 5.5.0
 _ZN12QEglFSWindowC2EP7QWindow@Base 5.5.0
 _ZN12QEglFSWindowD0Ev@Base 5.5.0
 _ZN12QEglFSWindowD1Ev@Base 5.5.0
 _ZN12QEglFSWindowD2Ev@Base 5.5.0
 _ZN13QEglFSContext11swapBuffersEP16QPlatformSurface@Base 5.5.0 1
 _ZN13QEglFSContext28eglSurfaceForPlatformSurfaceEP16QPlatformSurface@Base 5.5.0 1
 _ZN13QEglFSContext31createTemporaryOffscreenSurfaceEv@Base 5.5.0
 _ZN13QEglFSContext32destroyTemporaryOffscreenSurfaceEPv@Base 5.5.0
 _ZN13QEglFSContextC1ERK14QSurfaceFormatP22QPlatformOpenGLContextPvPS5_RK8QVariant@Base 5.5.0 1
 _ZN13QEglFSContextC2ERK14QSurfaceFormatP22QPlatformOpenGLContextPvPS5_RK8QVariant@Base 5.5.0 1
 _ZN13QEglFSContextD0Ev@Base 5.5.0
 _ZN13QEglFSContextD1Ev@Base 5.5.0
 _ZN13QEglFSContextD2Ev@Base 5.5.0
 _ZN13QFontEngineFT11boundingBoxERK12QGlyphLayout@Base 5.5.0 1
 _ZN13QFontEngineFT11boundingBoxEj@Base 5.5.0 1
 _ZN13QFontEngineFT11boundingBoxEjRK10QTransform@Base 5.5.0 1
 _ZN13QFontEngineFT12loadGlyphForEj6QFixedN11QFontEngine11GlyphFormatERK10QTransformb@Base 5.5.0 1
 _ZN13QFontEngineFT12loadGlyphSetERK10QTransform@Base 5.5.0 1
 _ZN13QFontEngineFT15addGlyphsToPathEPjP11QFixedPointiP12QPainterPath6QFlagsIN9QTextItem10RenderFlagEE@Base 5.5.0 1
 _ZN13QFontEngineFT16addOutlineToPathEddRK12QGlyphLayoutP12QPainterPath6QFlagsIN9QTextItem10RenderFlagEE@Base 5.5.0 1
 _ZN13QFontEngineFT16alphaMapForGlyphEj6QFixed@Base 5.5.0 1
 _ZN13QFontEngineFT16alphaMapForGlyphEj6QFixedRK10QTransform@Base 5.5.0 1
 _ZN13QFontEngineFT16getUnscaledGlyphEjP12QPainterPathP15glyph_metrics_t@Base 5.5.0 1
 _ZN13QFontEngineFT17getPointInOutlineEjijP6QFixedS1_Pj@Base 5.5.0 1
 _ZN13QFontEngineFT18initFromFontEngineEPKS_@Base 5.5.0 1
 _ZN13QFontEngineFT19alphaMapBoundingBoxEj6QFixedRK10QTransformN11QFontEngine11GlyphFormatE@Base 5.5.0 1
 _ZN13QFontEngineFT19alphaRGBMapForGlyphEj6QFixedRK10QTransform@Base 5.5.0 1
 _ZN13QFontEngineFT19setDefaultHintStyleEN11QFontEngine9HintStyleE@Base 5.5.0 1
 _ZN13QFontEngineFT20removeGlyphFromCacheEj@Base 5.5.0 1
 _ZN13QFontEngineFT22lockedAlphaMapForGlyphEj6QFixedN11QFontEngine11GlyphFormatERK10QTransformP6QPoint@Base 5.5.0 1
 _ZN13QFontEngineFT22unlockAlphaMapForGlyphEv@Base 5.5.0 1
 _ZN13QFontEngineFT4initEN11QFontEngine6FaceIdEbNS0_11GlyphFormatEP13QFreetypeFace@Base 5.5.0 1
 _ZN13QFontEngineFT4initEN11QFontEngine6FaceIdEbNS0_11GlyphFormatERK10QByteArray@Base 5.5.0 1
 _ZN13QFontEngineFT5GlyphD1Ev@Base 5.5.0 1
 _ZN13QFontEngineFT5GlyphD2Ev@Base 5.5.0 1
 _ZN13QFontEngineFT9QGlyphSet20removeGlyphFromCacheEj6QFixed@Base 5.5.0 1
 _ZN13QFontEngineFT9QGlyphSet5clearEv@Base 5.5.0 1
 _ZN13QFontEngineFT9QGlyphSet8setGlyphEj6QFixedPNS_5GlyphE@Base 5.5.0 1
 _ZN13QFontEngineFT9QGlyphSetC1Ev@Base 5.5.0 1
 _ZN13QFontEngineFT9QGlyphSetC2Ev@Base 5.5.0 1
 _ZN13QFontEngineFT9QGlyphSetD1Ev@Base 5.5.0 1
 _ZN13QFontEngineFT9QGlyphSetD2Ev@Base 5.5.0 1
 _ZN13QFontEngineFTC1ERK8QFontDef@Base 5.5.0 1
 _ZN13QFontEngineFTC2ERK8QFontDef@Base 5.5.0 1
 _ZN13QFontEngineFTD0Ev@Base 5.5.0 1
 _ZN13QFontEngineFTD1Ev@Base 5.5.0 1
 _ZN13QFontEngineFTD2Ev@Base 5.5.0 1
 _ZN17QEglFSIntegration10initializeEv@Base 5.5.0
 _ZN17QEglFSIntegration12chooseConfigEPvRK14QSurfaceFormat@Base 5.5.0
 _ZN17QEglFSIntegration12removeScreenEP15QPlatformScreen@Base 5.5.0 1
 _ZN17QEglFSIntegration7destroyEv@Base 5.5.0
 _ZN17QEglFSIntegration9addScreenEP15QPlatformScreen@Base 5.5.0 1
 _ZN17QEglFSIntegrationC1Ev@Base 5.5.0
 _ZN17QEglFSIntegrationC2Ev@Base 5.5.0
 _ZN17QEglFSIntegrationD0Ev@Base 5.5.0
 _ZN17QEglFSIntegrationD1Ev@Base 5.5.0
 _ZN17QEglFSIntegrationD2Ev@Base 5.5.0
 _ZN21QEGLDeviceIntegration10screenInitEv@Base 5.5.0
 _ZN21QEGLDeviceIntegration12platformInitEv@Base 5.5.0
 _ZN21QEGLDeviceIntegration13presentBufferEP16QPlatformSurface@Base 5.5.0 1
 _ZN21QEGLDeviceIntegration13screenDestroyEv@Base 5.5.0
 _ZN21QEGLDeviceIntegration15platformDestroyEv@Base 5.5.0
 _ZN21QEGLDeviceIntegration17usesDefaultScreenEv@Base 5.5.0
 _ZN21QEGLDeviceIntegration18createNativeWindowEP15QPlatformWindowRK5QSizeRK14QSurfaceFormat@Base 5.5.0 1
 _ZN21QEGLDeviceIntegration19destroyNativeWindowEm@Base 5.5.0
 _ZN21QEGLDeviceIntegration27createNativeOffscreenWindowERK14QSurfaceFormat@Base 5.5.0
 _ZN21QEglFSOffscreenWindowC1EPvRK14QSurfaceFormatP17QOffscreenSurface@Base 5.5.0
 _ZN21QEglFSOffscreenWindowC2EPvRK14QSurfaceFormatP17QOffscreenSurface@Base 5.5.0
 _ZN21QEglFSOffscreenWindowD0Ev@Base 5.5.0
 _ZN21QEglFSOffscreenWindowD1Ev@Base 5.5.0
 _ZN21QEglFSOffscreenWindowD2Ev@Base 5.5.0
 _ZN27QEGLDeviceIntegrationPlugin11qt_metacallEN11QMetaObject4CallEiPPv@Base 5.5.0
 _ZN27QEGLDeviceIntegrationPlugin11qt_metacastEPKc@Base 5.5.0
 _ZN27QEGLDeviceIntegrationPlugin16staticMetaObjectE@Base 5.5.0
 _ZN27QEventDispatcherGlibPrivateD0Ev@Base 5.5.0 1
 _ZN27QEventDispatcherGlibPrivateD1Ev@Base 5.5.0 1
 _ZN27QEventDispatcherGlibPrivateD2Ev@Base 5.5.0 1
 _ZN28QEGLDeviceIntegrationFactory4keysERK7QString@Base 5.5.0
 _ZN28QEGLDeviceIntegrationFactory6createERK7QStringS2_@Base 5.5.0
 _ZN31QAbstractEventDispatcherPrivateD0Ev@Base 5.5.0 1
 _ZN31QAbstractEventDispatcherPrivateD1Ev@Base 5.5.0 1
 _ZN31QAbstractEventDispatcherPrivateD2Ev@Base 5.5.0 1
 _ZNK12QEglFSScreen10logicalDpiEv@Base 5.5.0
 _ZNK12QEglFSScreen11orientationEv@Base 5.5.0
 _ZNK12QEglFSScreen11refreshRateEv@Base 5.5.0
 _ZNK12QEglFSScreen12physicalSizeEv@Base 5.5.0
 _ZNK12QEglFSScreen17nativeOrientationEv@Base 5.5.0
 _ZNK12QEglFSScreen5depthEv@Base 5.5.0
 _ZNK12QEglFSScreen6cursorEv@Base 5.5.0
 _ZNK12QEglFSScreen6formatEv@Base 5.5.0
 _ZNK12QEglFSScreen8geometryEv@Base 5.5.0
 _ZNK12QEglFSWindow6formatEv@Base 5.5.0
 _ZNK12QEglFSWindow6screenEv@Base 5.5.0
 _ZNK12QEglFSWindow7surfaceEv@Base 5.5.0
 _ZNK12QEglFSWindow8geometryEv@Base 5.5.0
 _ZNK12QEglFSWindow9eglWindowEv@Base 5.5.0
 _ZNK13QFontEngineFT10glyphCountEv@Base 5.5.0 1
 _ZNK13QFontEngineFT10glyphIndexEj@Base 5.5.0 1
 _ZNK13QFontEngineFT10propertiesEv@Base 5.5.0 1
 _ZNK13QFontEngineFT10unlockFaceEv@Base 5.5.0 1
 _ZNK13QFontEngineFT11synthesizedEv@Base 5.5.0 1
 _ZNK13QFontEngineFT12emSquareSizeEv@Base 5.5.0 1
 _ZNK13QFontEngineFT12maxCharWidthEv@Base 5.5.0 1
 _ZNK13QFontEngineFT12stringToCMapEPK5QChariP12QGlyphLayoutPi6QFlagsIN11QFontEngine10ShaperFlagEE@Base 5.5.0 1
 _ZNK13QFontEngineFT13cloneWithSizeEd@Base 5.5.0 1
 _ZNK13QFontEngineFT13lineThicknessEv@Base 5.5.0 1
 _ZNK13QFontEngineFT14minLeftBearingEv@Base 5.5.0 1
 _ZNK13QFontEngineFT14recalcAdvancesEP12QGlyphLayout6QFlagsIN11QFontEngine10ShaperFlagEE@Base 5.5.0 1
 _ZNK13QFontEngineFT15minRightBearingEv@Base 5.5.0 1
 _ZNK13QFontEngineFT15non_locked_faceEv@Base 5.5.0 1
 _ZNK13QFontEngineFT16averageCharWidthEv@Base 5.5.0 1
 _ZNK13QFontEngineFT16getSfntTableDataEjPhPj@Base 5.5.0 1
 _ZNK13QFontEngineFT17underlinePositionEv@Base 5.5.0 1
 _ZNK13QFontEngineFT22shouldUseDesignMetricsE6QFlagsIN11QFontEngine10ShaperFlagEE@Base 5.5.0 1
 _ZNK13QFontEngineFT22supportsTransformationERK10QTransform@Base 5.5.0 1
 _ZNK13QFontEngineFT6ascentEv@Base 5.5.0 1
 _ZNK13QFontEngineFT6faceIdEv@Base 5.5.0 1
 _ZNK13QFontEngineFT7descentEv@Base 5.5.0 1
 _ZNK13QFontEngineFT7leadingEv@Base 5.5.0 1
 _ZNK13QFontEngineFT7xHeightEv@Base 5.5.0 1
 _ZNK13QFontEngineFT8lockFaceENS_7ScalingE@Base 5.5.0 1
 _ZNK13QFontEngineFT9doKerningEP12QGlyphLayout6QFlagsIN11QFontEngine10ShaperFlagEE@Base 5.5.0 1
 _ZNK13QFontEngineFT9loadFlagsEPNS_9QGlyphSetEN11QFontEngine11GlyphFormatEiRbRi@Base 5.5.0 1
 _ZNK13QFontEngineFT9loadGlyphEPNS_9QGlyphSetEj6QFixedN11QFontEngine11GlyphFormatEb@Base 5.5.0 1
 _ZNK17QEglFSIntegration12createWindowEP7QWindow@Base 5.5.0
 _ZNK17QEglFSIntegration13createContextERK14QSurfaceFormatP22QPlatformOpenGLContextPvP8QVariant@Base 5.5.0 1
 _ZNK17QEglFSIntegration13hasCapabilityEN20QPlatformIntegration10CapabilityE@Base 5.5.0 1
 _ZNK17QEglFSIntegration13nativeDisplayEv@Base 5.5.0
 _ZNK17QEglFSIntegration22createOffscreenSurfaceEPvRK14QSurfaceFormatP17QOffscreenSurface@Base 5.5.0
 _ZNK21QEGLDeviceIntegration10logicalDpiEv@Base 5.5.0
 _ZNK21QEGLDeviceIntegration10screenSizeEv@Base 5.5.0
 _ZNK21QEGLDeviceIntegration11orientationEv@Base 5.5.0
 _ZNK21QEGLDeviceIntegration11refreshRateEv@Base 5.5.0
 _ZNK21QEGLDeviceIntegration11screenDepthEv@Base 5.5.0
 _ZNK21QEGLDeviceIntegration12createCursorEP15QPlatformScreen@Base 5.5.0 1
 _ZNK21QEGLDeviceIntegration12fbDeviceNameEv@Base 5.5.0
 _ZNK21QEGLDeviceIntegration12filterConfigEPvS0_@Base 5.5.0
 _ZNK21QEGLDeviceIntegration12screenFormatEv@Base 5.5.0
 _ZNK21QEGLDeviceIntegration12waitForVSyncEP16QPlatformSurface@Base 5.5.0 1
 _ZNK21QEGLDeviceIntegration13hasCapabilityEN20QPlatformIntegration10CapabilityE@Base 5.5.0 1
 _ZNK21QEGLDeviceIntegration15platformDisplayEv@Base 5.5.0
 _ZNK21QEGLDeviceIntegration16framebufferIndexEv@Base 5.5.0
 _ZNK21QEGLDeviceIntegration16supportsPBuffersEv@Base 5.5.0
 _ZNK21QEGLDeviceIntegration16surfaceFormatForERK14QSurfaceFormat@Base 5.5.0
 _ZNK21QEGLDeviceIntegration17nativeOrientationEv@Base 5.5.0
 _ZNK21QEGLDeviceIntegration18physicalScreenSizeEv@Base 5.5.0
 _ZNK27QEGLDeviceIntegrationPlugin10metaObjectEv@Base 5.5.0
 _ZTI12QEglFSScreen@Base 5.5.0
 _ZTI12QEglFSWindow@Base 5.5.0
 _ZTI13QEglFSContext@Base 5.5.0
 _ZTI13QFontEngineFT@Base 5.5.0 1
 _ZTI16QOpenGLFunctions@Base 5.5.0
 _ZTI17QEglFSIntegration@Base 5.5.0
 _ZTI21QEGLDeviceIntegration@Base 5.5.0
 _ZTI21QEglFSOffscreenWindow@Base 5.5.0
 _ZTI27QEGLDeviceIntegrationPlugin@Base 5.5.0
 _ZTI27QEventDispatcherGlibPrivate@Base 5.5.0 1
 _ZTI31QAbstractEventDispatcherPrivate@Base 5.5.0 1
 _ZTS12QEglFSScreen@Base 5.5.0
 _ZTS12QEglFSWindow@Base 5.5.0
 _ZTS13QEglFSContext@Base 5.5.0
 _ZTS13QFontEngineFT@Base 5.5.0 1
 _ZTS16QOpenGLFunctions@Base 5.5.0
 _ZTS17QEglFSIntegration@Base 5.5.0
 _ZTS21QEGLDeviceIntegration@Base 5.5.0
 _ZTS21QEglFSOffscreenWindow@Base 5.5.0
 _ZTS27QEGLDeviceIntegrationPlugin@Base 5.5.0
 _ZTS27QEventDispatcherGlibPrivate@Base 5.5.0 1
 _ZTS31QAbstractEventDispatcherPrivate@Base 5.5.0 1
 _ZTV12QEglFSScreen@Base 5.5.0
 _ZTV12QEglFSWindow@Base 5.5.0
 _ZTV13QEglFSContext@Base 5.5.0
 _ZTV13QFontEngineFT@Base 5.5.0 1
 _ZTV17QEglFSIntegration@Base 5.5.0
 _ZTV21QEGLDeviceIntegration@Base 5.5.0
 _ZTV21QEglFSOffscreenWindow@Base 5.5.0
 _ZTV27QEGLDeviceIntegrationPlugin@Base 5.5.0
 _ZTV27QEventDispatcherGlibPrivate@Base 5.5.0 1
 _ZTV31QAbstractEventDispatcherPrivate@Base 5.5.0 1
 (c++)"non-virtual thunk to QEglFSIntegration::~QEglFSIntegration()@Base" 5.5.0
